target datalayout = "e-m:e-p270:32:32-p271:32:32-p272:64:64-i64:64-i128:128-f80:128-n8:16:32:64-S128"
target triple = "x86_64-pc-linux-gnu"

@.str.67 = private unnamed_addr constant [3 x i8] c"NM\00", align 1
@.str.68 = private unnamed_addr constant [3 x i8] c"SK\00", align 1
@.str.69 = private unnamed_addr constant [3 x i8] c"L3\00", align 1
@.str.70 = private unnamed_addr constant [3 x i8] c"L2\00", align 1
@.str.71 = private unnamed_addr constant [3 x i8] c"L1\00", align 1
@.str.72 = private unnamed_addr constant [3 x i8] c"CR\00", align 1
@.str.73 = private unnamed_addr constant [3 x i8] c"HT\00", align 1
@.str.74 = private unnamed_addr constant [25 x i8] c"UNRECOGNIZED LOCALITY %s\00", align 1

; Function Attrs: nounwind uwtable
define zeroext i16 @prte_hwloc_compute_relative_locality(ptr noundef %0, ptr noundef %1) #0 {
  %3 = alloca i16, align 2
  %4 = alloca ptr, align 8
  %5 = alloca ptr, align 8
  %6 = alloca i16, align 2
  %7 = alloca ptr, align 8
  %8 = alloca ptr, align 8
  %9 = alloca ptr, align 8
  %10 = alloca ptr, align 8
  %11 = alloca i64, align 8
  %12 = alloca i64, align 8
  %13 = alloca i32, align 4
  store ptr %0, ptr %4, align 8, !tbaa !26
  store ptr %1, ptr %5, align 8, !tbaa !26
  call void @llvm.lifetime.start.p0(i64 2, ptr %6) #10
  call void @llvm.lifetime.start.p0(i64 8, ptr %7) #10
  call void @llvm.lifetime.start.p0(i64 8, ptr %8) #10
  call void @llvm.lifetime.start.p0(i64 8, ptr %9) #10
  call void @llvm.lifetime.start.p0(i64 8, ptr %10) #10
  call void @llvm.lifetime.start.p0(i64 8, ptr %11) #10
  call void @llvm.lifetime.start.p0(i64 8, ptr %12) #10
  store i16 15, ptr %6, align 2, !tbaa !109
  %14 = load ptr, ptr %4, align 8, !tbaa !26
  %15 = icmp eq ptr null, %14
  br i1 %15, label %19, label %16

16:                                               ; preds = %2
  %17 = load ptr, ptr %5, align 8, !tbaa !26
  %18 = icmp eq ptr null, %17
  br i1 %18, label %19, label %21

19:                                               ; preds = %16, %2
  %20 = load i16, ptr %6, align 2, !tbaa !109
  store i16 %20, ptr %3, align 2
  store i32 1, ptr %13, align 4
  br label %182

21:                                               ; preds = %16
  %22 = load ptr, ptr %4, align 8, !tbaa !26
  %23 = call ptr @PMIx_Argv_split(ptr noundef %22, i32 noundef 58)
  store ptr %23, ptr %7, align 8, !tbaa !28
  %24 = load ptr, ptr %5, align 8, !tbaa !26
  %25 = call ptr @PMIx_Argv_split(ptr noundef %24, i32 noundef 58)
  store ptr %25, ptr %8, align 8, !tbaa !28
  %26 = call noalias ptr @hwloc_bitmap_alloc()
  store ptr %26, ptr %9, align 8, !tbaa !27
  %27 = call noalias ptr @hwloc_bitmap_alloc()
  store ptr %27, ptr %10, align 8, !tbaa !27
  store i64 0, ptr %11, align 8, !tbaa !66
  br label %28

28:                                               ; preds = %173, %21
  %29 = load ptr, ptr %7, align 8, !tbaa !28
  %30 = load i64, ptr %11, align 8, !tbaa !66
  %31 = getelementptr inbounds nuw ptr, ptr %29, i64 %30
  %32 = load ptr, ptr %31, align 8, !tbaa !26
  %33 = icmp ne ptr null, %32
  br i1 %33, label %34, label %176

34:                                               ; preds = %28
  %35 = load ptr, ptr %9, align 8, !tbaa !27
  %36 = load ptr, ptr %7, align 8, !tbaa !28
  %37 = load i64, ptr %11, align 8, !tbaa !66
  %38 = getelementptr inbounds nuw ptr, ptr %36, i64 %37
  %39 = load ptr, ptr %38, align 8, !tbaa !26
  %40 = getelementptr inbounds i8, ptr %39, i64 2
  %41 = call i32 @hwloc_bitmap_list_sscanf(ptr noundef %35, ptr noundef %40)
  store i64 0, ptr %12, align 8, !tbaa !66
  br label %42

42:                                               ; preds = %169, %34
  %43 = load ptr, ptr %8, align 8, !tbaa !28
  %44 = load i64, ptr %12, align 8, !tbaa !66
  %45 = getelementptr inbounds nuw ptr, ptr %43, i64 %44
  %46 = load ptr, ptr %45, align 8, !tbaa !26
  %47 = icmp ne ptr null, %46
  br i1 %47, label %48, label %172

48:                                               ; preds = %42
  %49 = load ptr, ptr %7, align 8, !tbaa !28
  %50 = load i64, ptr %11, align 8, !tbaa !66
  %51 = getelementptr inbounds nuw ptr, ptr %49, i64 %50
  %52 = load ptr, ptr %51, align 8, !tbaa !26
  %53 = load ptr, ptr %8, align 8, !tbaa !28
  %54 = load i64, ptr %12, align 8, !tbaa !66
  %55 = getelementptr inbounds nuw ptr, ptr %53, i64 %54
  %56 = load ptr, ptr %55, align 8, !tbaa !26
  %57 = call i32 @strncmp(ptr noundef %52, ptr noundef %56, i64 noundef 2) #11
  %58 = icmp eq i32 0, %57
  br i1 %58, label %59, label %168

59:                                               ; preds = %48
  %60 = load ptr, ptr %10, align 8, !tbaa !27
  %61 = load ptr, ptr %8, align 8, !tbaa !28
  %62 = load i64, ptr %12, align 8, !tbaa !66
  %63 = getelementptr inbounds nuw ptr, ptr %61, i64 %62
  %64 = load ptr, ptr %63, align 8, !tbaa !26
  %65 = getelementptr inbounds i8, ptr %64, i64 2
  %66 = call i32 @hwloc_bitmap_list_sscanf(ptr noundef %60, ptr noundef %65)
  %67 = load ptr, ptr %9, align 8, !tbaa !27
  %68 = load ptr, ptr %10, align 8, !tbaa !27
  %69 = call i32 @hwloc_bitmap_intersects(ptr noundef %67, ptr noundef %68) #11
  %70 = icmp ne i32 %69, 0
  br i1 %70, label %71, label %167

71:                                               ; preds = %59
  %72 = load ptr, ptr %7, align 8, !tbaa !28
  %73 = load i64, ptr %11, align 8, !tbaa !66
  %74 = getelementptr inbounds nuw ptr, ptr %72, i64 %73
  %75 = load ptr, ptr %74, align 8, !tbaa !26
  %76 = call i32 @strncmp(ptr noundef %75, ptr noundef @.str.68, i64 noundef 2) #11
  %77 = icmp eq i32 0, %76
  br i1 %77, label %78, label %83

78:                                               ; preds = %71
  %79 = load i16, ptr %6, align 2, !tbaa !109
  %80 = zext i16 %79 to i32
  %81 = or i32 %80, 32
  %82 = trunc i32 %81 to i16
  store i16 %82, ptr %6, align 2, !tbaa !109
  br label %166

83:                                               ; preds = %71
  %84 = load ptr, ptr %7, align 8, !tbaa !28
  %85 = load i64, ptr %11, align 8, !tbaa !66
  %86 = getelementptr inbounds nuw ptr, ptr %84, i64 %85
  %87 = load ptr, ptr %86, align 8, !tbaa !26
  %88 = call i32 @strncmp(ptr noundef %87, ptr noundef @.str.67, i64 noundef 2) #11
  %89 = icmp eq i32 0, %88
  br i1 %89, label %90, label %95

90:                                               ; preds = %83
  %91 = load i16, ptr %6, align 2, !tbaa !109
  %92 = zext i16 %91 to i32
  %93 = or i32 %92, 64
  %94 = trunc i32 %93 to i16
  store i16 %94, ptr %6, align 2, !tbaa !109
  br label %165

95:                                               ; preds = %83
  %96 = load ptr, ptr %7, align 8, !tbaa !28
  %97 = load i64, ptr %11, align 8, !tbaa !66
  %98 = getelementptr inbounds nuw ptr, ptr %96, i64 %97
  %99 = load ptr, ptr %98, align 8, !tbaa !26
  %100 = call i32 @strncmp(ptr noundef %99, ptr noundef @.str.69, i64 noundef 2) #11
  %101 = icmp eq i32 0, %100
  br i1 %101, label %102, label %107

102:                                              ; preds = %95
  %103 = load i16, ptr %6, align 2, !tbaa !109
  %104 = zext i16 %103 to i32
  %105 = or i32 %104, 128
  %106 = trunc i32 %105 to i16
  store i16 %106, ptr %6, align 2, !tbaa !109
  br label %164

107:                                              ; preds = %95
  %108 = load ptr, ptr %7, align 8, !tbaa !28
  %109 = load i64, ptr %11, align 8, !tbaa !66
  %110 = getelementptr inbounds nuw ptr, ptr %108, i64 %109
  %111 = load ptr, ptr %110, align 8, !tbaa !26
  %112 = call i32 @strncmp(ptr noundef %111, ptr noundef @.str.70, i64 noundef 2) #11
  %113 = icmp eq i32 0, %112
  br i1 %113, label %114, label %119

114:                                              ; preds = %107
  %115 = load i16, ptr %6, align 2, !tbaa !109
  %116 = zext i16 %115 to i32
  %117 = or i32 %116, 256
  %118 = trunc i32 %117 to i16
  store i16 %118, ptr %6, align 2, !tbaa !109
  br label %163

119:                                              ; preds = %107
  %120 = load ptr, ptr %7, align 8, !tbaa !28
  %121 = load i64, ptr %11, align 8, !tbaa !66
  %122 = getelementptr inbounds nuw ptr, ptr %120, i64 %121
  %123 = load ptr, ptr %122, align 8, !tbaa !26
  %124 = call i32 @strncmp(ptr noundef %123, ptr noundef @.str.71, i64 noundef 2) #11
  %125 = icmp eq i32 0, %124
  br i1 %125, label %126, label %131

126:                                              ; preds = %119
  %127 = load i16, ptr %6, align 2, !tbaa !109
  %128 = zext i16 %127 to i32
  %129 = or i32 %128, 512
  %130 = trunc i32 %129 to i16
  store i16 %130, ptr %6, align 2, !tbaa !109
  br label %162

131:                                              ; preds = %119
  %132 = load ptr, ptr %7, align 8, !tbaa !28
  %133 = load i64, ptr %11, align 8, !tbaa !66
  %134 = getelementptr inbounds nuw ptr, ptr %132, i64 %133
  %135 = load ptr, ptr %134, align 8, !tbaa !26
  %136 = call i32 @strncmp(ptr noundef %135, ptr noundef @.str.72, i64 noundef 2) #11
  %137 = icmp eq i32 0, %136
  br i1 %137, label %138, label %143

138:                                              ; preds = %131
  %139 = load i16, ptr %6, align 2, !tbaa !109
  %140 = zext i16 %139 to i32
  %141 = or i32 %140, 1024
  %142 = trunc i32 %141 to i16
  store i16 %142, ptr %6, align 2, !tbaa !109
  br label %161

143:                                              ; preds = %131
  %144 = load ptr, ptr %7, align 8, !tbaa !28
  %145 = load i64, ptr %11, align 8, !tbaa !66
  %146 = getelementptr inbounds nuw ptr, ptr %144, i64 %145
  %147 = load ptr, ptr %146, align 8, !tbaa !26
  %148 = call i32 @strncmp(ptr noundef %147, ptr noundef @.str.73, i64 noundef 2) #11
  %149 = icmp eq i32 0, %148
  br i1 %149, label %150, label %155

150:                                              ; preds = %143
  %151 = load i16, ptr %6, align 2, !tbaa !109
  %152 = zext i16 %151 to i32
  %153 = or i32 %152, 2048
  %154 = trunc i32 %153 to i16
  store i16 %154, ptr %6, align 2, !tbaa !109
  br label %160

155:                                              ; preds = %143
  %156 = load ptr, ptr %7, align 8, !tbaa !28
  %157 = load i64, ptr %11, align 8, !tbaa !66
  %158 = getelementptr inbounds nuw ptr, ptr %156, i64 %157
  %159 = load ptr, ptr %158, align 8, !tbaa !26
  call void (i32, ptr, ...) @pmix_output(i32 noundef 0, ptr noundef @.str.74, ptr noundef %159)
  br label %160

160:                                              ; preds = %155, %150
  br label %161

161:                                              ; preds = %160, %138
  br label %162

162:                                              ; preds = %161, %126
  br label %163

163:                                              ; preds = %162, %114
  br label %164

164:                                              ; preds = %163, %102
  br label %165

165:                                              ; preds = %164, %90
  br label %166

166:                                              ; preds = %165, %78
  br label %167

167:                                              ; preds = %166, %59
  br label %172

168:                                              ; preds = %48
  br label %169

169:                                              ; preds = %168
  %170 = load i64, ptr %12, align 8, !tbaa !66
  %171 = add i64 %170, 1
  store i64 %171, ptr %12, align 8, !tbaa !66
  br label %42, !llvm.loop !137

172:                                              ; preds = %167, %42
  br label %173

173:                                              ; preds = %172
  %174 = load i64, ptr %11, align 8, !tbaa !66
  %175 = add i64 %174, 1
  store i64 %175, ptr %11, align 8, !tbaa !66
  br label %28, !llvm.loop !138

176:                                              ; preds = %28
  %177 = load ptr, ptr %7, align 8, !tbaa !28
  call void @PMIx_Argv_free(ptr noundef %177)
  %178 = load ptr, ptr %8, align 8, !tbaa !28
  call void @PMIx_Argv_free(ptr noundef %178)
  %179 = load ptr, ptr %9, align 8, !tbaa !27
  call void @hwloc_bitmap_free(ptr noundef %179)
  %180 = load ptr, ptr %10, align 8, !tbaa !27
  call void @hwloc_bitmap_free(ptr noundef %180)
  %181 = load i16, ptr %6, align 2, !tbaa !109
  store i16 %181, ptr %3, align 2
  store i32 1, ptr %13, align 4
  br label %182

182:                                              ; preds = %176, %19
  call void @llvm.lifetime.end.p0(i64 8, ptr %12) #10
  call void @llvm.lifetime.end.p0(i64 8, ptr %11) #10
  call void @llvm.lifetime.end.p0(i64 8, ptr %10) #10
  call void @llvm.lifetime.end.p0(i64 8, ptr %9) #10
  call void @llvm.lifetime.end.p0(i64 8, ptr %8) #10
  call void @llvm.lifetime.end.p0(i64 8, ptr %7) #10
  call void @llvm.lifetime.end.p0(i64 2, ptr %6) #10
  %183 = load i16, ptr %3, align 2
  ret i16 %183
}