; Function Attrs: nounwind uwtable
define zeroext i16 @prte_hwloc_compute_relative_locality(ptr noundef %0, ptr noundef %1) local_unnamed_addr #0 {
  %3 = icmp eq ptr %0, null
  %4 = icmp eq ptr %1, null
  %or.cond = or i1 %3, %4
  br i1 %or.cond, label %69, label %5

5:                                                ; preds = %2
  %6 = tail call ptr @PMIx_Argv_split(ptr noundef nonnull %0, i32 noundef 58) #18
  %7 = tail call ptr @PMIx_Argv_split(ptr noundef nonnull %1, i32 noundef 58) #18
  %8 = tail call noalias ptr @hwloc_bitmap_alloc() #18
  %9 = tail call noalias ptr @hwloc_bitmap_alloc() #18
  %10 = load ptr, ptr %6, align 8, !tbaa !20
  %.not88 = icmp eq ptr %10, null
  br i1 %.not88, label %._crit_edge, label %.lr.ph91

.lr.ph91:                                         ; preds = %5, %.loopexit
  %11 = phi ptr [ %68, %.loopexit ], [ %10, %5 ]
  %.05290 = phi i64 [ %66, %.loopexit ], [ 0, %5 ]
  %.05489 = phi i16 [ %.1, %.loopexit ], [ 15, %5 ]
  %12 = getelementptr inbounds nuw ptr, ptr %6, i64 %.05290
  %13 = getelementptr inbounds nuw i8, ptr %11, i64 2
  %14 = tail call i32 @hwloc_bitmap_list_sscanf(ptr noundef %8, ptr noundef nonnull %13) #18
  %15 = load ptr, ptr %7, align 8, !tbaa !20
  %.not5986 = icmp eq ptr %15, null
  br i1 %.not5986, label %.loopexit, label %.lr.ph

.lr.ph:                                           ; preds = %.lr.ph91
  %16 = load ptr, ptr %12, align 8, !tbaa !20
  br label %21

17:                                               ; preds = %21
  %18 = add i64 %.087, 1
  %19 = getelementptr inbounds nuw ptr, ptr %7, i64 %18
  %20 = load ptr, ptr %19, align 8, !tbaa !20
  %.not59 = icmp eq ptr %20, null
  br i1 %.not59, label %.loopexit, label %21, !llvm.loop !115

21:                                               ; preds = %.lr.ph, %17
  %22 = phi ptr [ %15, %.lr.ph ], [ %20, %17 ]
  %.087 = phi i64 [ 0, %.lr.ph ], [ %18, %17 ]
  %23 = tail call i32 @strncmp(ptr noundef nonnull dereferenceable(1) %16, ptr noundef nonnull dereferenceable(1) %22, i64 noundef 2) #19
  %24 = icmp eq i32 %23, 0
  br i1 %24, label %25, label %17

25:                                               ; preds = %21
  %26 = getelementptr inbounds nuw i8, ptr %22, i64 2
  %27 = tail call i32 @hwloc_bitmap_list_sscanf(ptr noundef %9, ptr noundef nonnull %26) #18
  %28 = tail call i32 @hwloc_bitmap_intersects(ptr noundef %8, ptr noundef %9) #19
  %.not60 = icmp eq i32 %28, 0
  br i1 %.not60, label %.loopexit, label %sub_0

sub_0:                                            ; preds = %25
  %29 = load ptr, ptr %12, align 8, !tbaa !20
  %30 = load i8, ptr %29, align 1
  switch i8 %30, label %.tail81.thread [
    i8 83, label %.tail
    i8 78, label %.tail61
    i8 76, label %.tail65
    i8 67, label %.tail77
    i8 72, label %.tail81
  ]

.tail:                                            ; preds = %sub_0
  %31 = getelementptr inbounds nuw i8, ptr %29, i64 1
  %32 = load i8, ptr %31, align 1
  %33 = icmp eq i8 %32, 75
  br i1 %33, label %34, label %.tail81.thread

34:                                               ; preds = %.tail
  %35 = or i16 %.05489, 32
  br label %.loopexit

.tail61:                                          ; preds = %sub_0
  %36 = getelementptr inbounds nuw i8, ptr %29, i64 1
  %37 = load i8, ptr %36, align 1
  %38 = icmp eq i8 %37, 77
  br i1 %38, label %39, label %.tail81.thread

39:                                               ; preds = %.tail61
  %40 = or i16 %.05489, 64
  br label %.loopexit

.tail65:                                          ; preds = %sub_0
  %41 = getelementptr inbounds nuw i8, ptr %29, i64 1
  %42 = load i8, ptr %41, align 1
  %43 = icmp eq i8 %42, 51
  br i1 %43, label %44, label %.tail69

44:                                               ; preds = %.tail65
  %45 = or i16 %.05489, 128
  br label %.loopexit

.tail69:                                          ; preds = %.tail65
  %46 = getelementptr inbounds nuw i8, ptr %29, i64 1
  %47 = load i8, ptr %46, align 1
  %48 = icmp eq i8 %47, 50
  br i1 %48, label %49, label %.tail73

49:                                               ; preds = %.tail69
  %50 = or i16 %.05489, 256
  br label %.loopexit

.tail73:                                          ; preds = %.tail69
  %51 = getelementptr inbounds nuw i8, ptr %29, i64 1
  %52 = load i8, ptr %51, align 1
  %53 = icmp eq i8 %52, 49
  br i1 %53, label %54, label %.tail81.thread

54:                                               ; preds = %.tail73
  %55 = or i16 %.05489, 512
  br label %.loopexit

.tail77:                                          ; preds = %sub_0
  %56 = getelementptr inbounds nuw i8, ptr %29, i64 1
  %57 = load i8, ptr %56, align 1
  %58 = icmp eq i8 %57, 82
  br i1 %58, label %59, label %.tail81.thread

59:                                               ; preds = %.tail77
  %60 = or i16 %.05489, 1024
  br label %.loopexit

.tail81:                                          ; preds = %sub_0
  %61 = getelementptr inbounds nuw i8, ptr %29, i64 1
  %62 = load i8, ptr %61, align 1
  %63 = icmp eq i8 %62, 84
  br i1 %63, label %64, label %.tail81.thread

64:                                               ; preds = %.tail81
  %65 = or i16 %.05489, 2048
  br label %.loopexit

.tail81.thread:                                   ; preds = %sub_0, %.tail, %.tail61, %.tail73, %.tail77, %.tail81
  tail call void (i32, ptr, ...) @pmix_output(i32 noundef 0, ptr noundef nonnull @.str.74, ptr noundef nonnull %29) #18
  br label %.loopexit

.loopexit:                                        ; preds = %17, %.lr.ph91, %34, %44, %54, %64, %.tail81.thread, %59, %49, %39, %25
  %.1 = phi i16 [ %35, %34 ], [ %40, %39 ], [ %45, %44 ], [ %50, %49 ], [ %55, %54 ], [ %60, %59 ], [ %65, %64 ], [ %.05489, %.tail81.thread ], [ %.05489, %25 ], [ %.05489, %.lr.ph91 ], [ %.05489, %17 ]
  %66 = add i64 %.05290, 1
  %67 = getelementptr inbounds nuw ptr, ptr %6, i64 %66
  %68 = load ptr, ptr %67, align 8, !tbaa !20
  %.not = icmp eq ptr %68, null
  br i1 %.not, label %._crit_edge, label %.lr.ph91, !llvm.loop !116

._crit_edge:                                      ; preds = %.loopexit, %5
  %.054.lcssa = phi i16 [ 15, %5 ], [ %.1, %.loopexit ]
  tail call void @PMIx_Argv_free(ptr noundef nonnull %6) #18
  tail call void @PMIx_Argv_free(ptr noundef %7) #18
  tail call void @hwloc_bitmap_free(ptr noundef %8) #18
  tail call void @hwloc_bitmap_free(ptr noundef %9) #18
  br label %69

69:                                               ; preds = %2, %._crit_edge
  %.053 = phi i16 [ %.054.lcssa, %._crit_edge ], [ 15, %2 ]
  ret i16 %.053
}